#include <math.h>
#include <stdio.h>
#include <stdlib.h>
#include <string.h>


int main()
{
	int i,j,n,m=0,k=0,p;
	scanf("%d",&n);
	int a[1000][1000];
	for(i=0;i<n;i++)
	{
		for(j=0;j<n;j++)
		{
			scanf("%d",&a[i][j]);
		}
	}
	for(i=0;i<n;i++)
	{
		for(j=0;j<n;j++)
		{
			if(a[i][j]==0)
			{
				m=m+1;
			}
		}
		if(m!=0)
			break;
	}
		for(j=0;j<n;j++)
		{
			for(i=0;i<n;i++)
			{
				if(a[i][j]==0)
				{
					k=k+1;
				
				}
			}
			if(k!=0)
				break;
		}
            p=m*k-2*m-2*k+4;
			printf("%d\n",p);

	return 0;
}

